#include <math.h>
#include <stdio.h>
#include <stdlib.h>
#include <string.h>

int sushu(int x);
int main()
{
    int i=2,n,flag=0;
    scanf("%d",&n);
    for(i;i<=n;i++){
        if(sushu(i)&&sushu(i+2)&&i+2<=n){flag=1;printf("%d %d\n",i,i+2);}
}
	if(flag==0){printf("empty\n");}
    return 0;
}
    int sushu(int x){
        for(int p=2;p<x;p++){
            if(x%p==0){return 0;}
}
        return 1;
}
