; ModuleID = '60/880.c'
source_filename = "60/880.c"
target datalayout = "e-m:e-p270:32:32-p271:32:32-p272:64:64-i64:64-f80:128-n8:16:32:64-S128"
target triple = "x86_64-pc-linux-gnu"

@.str = private unnamed_addr constant [3 x i8] c"%d\00", align 1
@.str.1 = private unnamed_addr constant [7 x i8] c"%d %d\0A\00", align 1
@.str.2 = private unnamed_addr constant [7 x i8] c"empty\0A\00", align 1

; Function Attrs: noinline nounwind uwtable
define dso_local i32 @main() #0 {
  %1 = alloca i32, align 4
  %2 = alloca i32, align 4
  %3 = alloca i32, align 4
  %4 = alloca i32, align 4
  store i32 0, i32* %1, align 4
  store i32 2, i32* %2, align 4
  store i32 0, i32* %4, align 4
  %5 = call i32 (i8*, ...) @__isoc99_scanf(i8* getelementptr inbounds ([3 x i8], [3 x i8]* @.str, i64 0, i64 0), i32* %3)
  %6 = load i32, i32* %2, align 4
  br label %7

7:                                                ; preds = %31, %0
  %8 = load i32, i32* %2, align 4
  %9 = load i32, i32* %3, align 4
  %10 = icmp sle i32 %8, %9
  br i1 %10, label %11, label %34

11:                                               ; preds = %7
  %12 = load i32, i32* %2, align 4
  %13 = call i32 @sushu(i32 %12)
  %14 = icmp ne i32 %13, 0
  br i1 %14, label %15, label %30

15:                                               ; preds = %11
  %16 = load i32, i32* %2, align 4
  %17 = add nsw i32 %16, 2
  %18 = call i32 @sushu(i32 %17)
  %19 = icmp ne i32 %18, 0
  br i1 %19, label %20, label %30

20:                                               ; preds = %15
  %21 = load i32, i32* %2, align 4
  %22 = add nsw i32 %21, 2
  %23 = load i32, i32* %3, align 4
  %24 = icmp sle i32 %22, %23
  br i1 %24, label %25, label %30

25:                                               ; preds = %20
  store i32 1, i32* %4, align 4
  %26 = load i32, i32* %2, align 4
  %27 = load i32, i32* %2, align 4
  %28 = add nsw i32 %27, 2
  %29 = call i32 (i8*, ...) @printf(i8* getelementptr inbounds ([7 x i8], [7 x i8]* @.str.1, i64 0, i64 0), i32 %26, i32 %28)
  br label %30

30:                                               ; preds = %25, %20, %15, %11
  br label %31

31:                                               ; preds = %30
  %32 = load i32, i32* %2, align 4
  %33 = add nsw i32 %32, 1
  store i32 %33, i32* %2, align 4
  br label %7

34:                                               ; preds = %7
  %35 = load i32, i32* %4, align 4
  %36 = icmp eq i32 %35, 0
  br i1 %36, label %37, label %39

37:                                               ; preds = %34
  %38 = call i32 (i8*, ...) @printf(i8* getelementptr inbounds ([7 x i8], [7 x i8]* @.str.2, i64 0, i64 0))
  br label %39

39:                                               ; preds = %37, %34
  ret i32 0
}

declare dso_local i32 @__isoc99_scanf(i8*, ...) #1

; Function Attrs: noinline nounwind uwtable
define dso_local i32 @sushu(i32 %0) #0 {
  %2 = alloca i32, align 4
  %3 = alloca i32, align 4
  %4 = alloca i32, align 4
  store i32 %0, i32* %3, align 4
  store i32 2, i32* %4, align 4
  br label %5

5:                                                ; preds = %16, %1
  %6 = load i32, i32* %4, align 4
  %7 = load i32, i32* %3, align 4
  %8 = icmp slt i32 %6, %7
  br i1 %8, label %9, label %19

9:                                                ; preds = %5
  %10 = load i32, i32* %3, align 4
  %11 = load i32, i32* %4, align 4
  %12 = srem i32 %10, %11
  %13 = icmp eq i32 %12, 0
  br i1 %13, label %14, label %15

14:                                               ; preds = %9
  store i32 0, i32* %2, align 4
  br label %20

15:                                               ; preds = %9
  br label %16

16:                                               ; preds = %15
  %17 = load i32, i32* %4, align 4
  %18 = add nsw i32 %17, 1
  store i32 %18, i32* %4, align 4
  br label %5

19:                                               ; preds = %5
  store i32 1, i32* %2, align 4
  br label %20

20:                                               ; preds = %19, %14
  %21 = load i32, i32* %2, align 4
  ret i32 %21
}

declare dso_local i32 @printf(i8*, ...) #1


!llvm.module.flags = !{!0}
!llvm.ident = !{!1}

!0 = !{i32 1, !"wchar_size", i32 4}
!1 = !{!"clang version 10.0.0-4ubuntu1 "}
